; Function Attrs: mustprogress uwtable
define dso_local noundef zeroext i1 @_ZNK9Statement13contains_stmtEPKS_(ptr noundef nonnull align 8 dereferenceable(32) %0, ptr noundef %1) local_unnamed_addr #4 align 2 personality ptr @__gxx_personality_v0 {
  %3 = alloca %"class.std::vector.3", align 8
  %4 = icmp eq ptr %0, %1
  br i1 %4, label %_ZNSt6vectorIPK5BlockSaIS2_EED2Ev.exit17, label %5

5:                                                ; preds = %2
  %6 = getelementptr inbounds i8, ptr %0, i64 8
  %7 = load i32, ptr %6, align 8
  %8 = icmp eq i32 %7, 1
  br i1 %8, label %.preheader, label %10

.preheader:                                       ; preds = %5, %.preheader
  %.pn = phi ptr [ %.013, %.preheader ], [ %1, %5 ]
  %.013.in = getelementptr inbounds i8, ptr %.pn, i64 24
  %.013 = load ptr, ptr %.013.in, align 8
  %.not.not = icmp ne ptr %.013, null
  %9 = icmp ne ptr %.013, %0
  %or.cond.not = and i1 %9, %.not.not
  br i1 %or.cond.not, label %.preheader, label %_ZNSt6vectorIPK5BlockSaIS2_EED2Ev.exit17, !llvm.loop !60

10:                                               ; preds = %5
  call void @llvm.memset.p0.i64(ptr noundef nonnull align 8 dereferenceable(24) %3, i8 0, i64 24, i1 false)
  %11 = load ptr, ptr %0, align 8
  %12 = getelementptr inbounds i8, ptr %11, i64 24
  %13 = load ptr, ptr %12, align 8
  invoke void %13(ptr noundef nonnull align 8 dereferenceable(32) %0, ptr noundef nonnull align 8 dereferenceable(24) %3)
          to label %.preheader18 unwind label %.loopexit.split-lp

.preheader18:                                     ; preds = %10
  %14 = getelementptr inbounds i8, ptr %3, i64 8
  %15 = load ptr, ptr %14, align 8
  %16 = load ptr, ptr %3, align 8
  %.not23 = icmp eq ptr %15, %16
  br i1 %.not23, label %._crit_edge, label %.lr.ph

17:                                               ; preds = %29
  %18 = add nuw i64 %.020, 1
  %19 = load ptr, ptr %14, align 8
  %20 = ptrtoint ptr %19 to i64
  %21 = ptrtoint ptr %.pre.pre to i64
  %22 = sub i64 %20, %21
  %23 = ashr exact i64 %22, 3
  %24 = icmp ult i64 %18, %23
  br i1 %24, label %.lr.ph, label %._crit_edge, !llvm.loop !61

.lr.ph:                                           ; preds = %.preheader18, %17
  %25 = phi ptr [ %.pre.pre, %17 ], [ %16, %.preheader18 ]
  %.020 = phi i64 [ %18, %17 ], [ 0, %.preheader18 ]
  %26 = getelementptr inbounds ptr, ptr %25, i64 %.020
  %27 = load ptr, ptr %26, align 8
  %28 = invoke noundef zeroext i1 @_ZNK9Statement13contains_stmtEPKS_(ptr noundef nonnull align 8 dereferenceable(32) %27, ptr noundef %1)
          to label %29 unwind label %.loopexit

29:                                               ; preds = %.lr.ph
  %.pre.pre = load ptr, ptr %3, align 8
  br i1 %28, label %._crit_edge, label %17

.loopexit:                                        ; preds = %.lr.ph
  %lpad.loopexit = landingpad { ptr, i32 }
          cleanup
  br label %30

.loopexit.split-lp:                               ; preds = %10
  %lpad.loopexit.split-lp = landingpad { ptr, i32 }
          cleanup
  br label %30

30:                                               ; preds = %.loopexit.split-lp, %.loopexit
  %lpad.phi = phi { ptr, i32 } [ %lpad.loopexit, %.loopexit ], [ %lpad.loopexit.split-lp, %.loopexit.split-lp ]
  %31 = load ptr, ptr %3, align 8
  %.not.i.i.i = icmp eq ptr %31, null
  br i1 %.not.i.i.i, label %_ZNSt6vectorIPK5BlockSaIS2_EED2Ev.exit, label %32

32:                                               ; preds = %30
  call void @_ZdlPv(ptr noundef nonnull %31) #22
  br label %_ZNSt6vectorIPK5BlockSaIS2_EED2Ev.exit

_ZNSt6vectorIPK5BlockSaIS2_EED2Ev.exit:           ; preds = %30, %32
  resume { ptr, i32 } %lpad.phi

._crit_edge:                                      ; preds = %29, %17, %.preheader18
  %33 = phi ptr [ %15, %.preheader18 ], [ %.pre.pre, %17 ], [ %.pre.pre, %29 ]
  %.lcssa = phi i1 [ false, %.preheader18 ], [ %28, %17 ], [ %28, %29 ]
  %.not.i.i.i16 = icmp eq ptr %33, null
  br i1 %.not.i.i.i16, label %_ZNSt6vectorIPK5BlockSaIS2_EED2Ev.exit17, label %34

34:                                               ; preds = %._crit_edge
  call void @_ZdlPv(ptr noundef nonnull %33) #22
  br label %_ZNSt6vectorIPK5BlockSaIS2_EED2Ev.exit17

_ZNSt6vectorIPK5BlockSaIS2_EED2Ev.exit17:         ; preds = %.preheader, %34, %._crit_edge, %2
  %.1 = phi i1 [ true, %2 ], [ %.lcssa, %._crit_edge ], [ %.lcssa, %34 ], [ %.not.not, %.preheader ]
  ret i1 %.1
}